; Function Attrs: mustprogress uwtable
define void @_ZN28grpc_alts_server_credentials25create_security_connectorERKN9grpc_core11ChannelArgsE(ptr noalias sret(%"class.grpc_core::RefCountedPtr.3") align 8 %agg.result, ptr noundef nonnull align 8 dereferenceable(56) %this, ptr nocapture nonnull readnone align 8 %0) unnamed_addr #3 align 2 personality ptr @__gxx_personality_v0 {
entry:
  %agg.tmp = alloca %"class.grpc_core::RefCountedPtr.4", align 8
  tail call void @llvm.experimental.noalias.scope.decl(metadata !11)
  %refs_.i.i = getelementptr inbounds i8, ptr %this, i64 8
  %1 = atomicrmw add ptr %refs_.i.i, i64 1 monotonic, align 8, !noalias !11
  store ptr %this, ptr %agg.tmp, align 8, !alias.scope !11
  invoke void @_Z42grpc_alts_server_security_connector_createN9grpc_core13RefCountedPtrI23grpc_server_credentialsEE(ptr sret(%"class.grpc_core::RefCountedPtr.3") align 8 %agg.result, ptr noundef nonnull %agg.tmp)
          to label %invoke.cont unwind label %lpad

invoke.cont:                                      ; preds = %entry
  %2 = load ptr, ptr %agg.tmp, align 8
  %cmp.not.i = icmp eq ptr %2, null
  br i1 %cmp.not.i, label %_ZN9grpc_core13RefCountedPtrI23grpc_server_credentialsED2Ev.exit, label %if.then.i

if.then.i:                                        ; preds = %invoke.cont
  %refs_.i.i1 = getelementptr inbounds i8, ptr %2, i64 8
  %3 = atomicrmw sub ptr %refs_.i.i1, i64 1 acq_rel, align 8
  %cmp.i.i.i = icmp eq i64 %3, 1
  br i1 %cmp.i.i.i, label %if.then.i.i, label %_ZN9grpc_core13RefCountedPtrI23grpc_server_credentialsED2Ev.exit

if.then.i.i:                                      ; preds = %if.then.i
  %vtable.i.i.i = load ptr, ptr %2, align 8
  %vfn.i.i.i = getelementptr inbounds i8, ptr %vtable.i.i.i, i64 8
  %4 = load ptr, ptr %vfn.i.i.i, align 8
  call void %4(ptr noundef nonnull align 8 dereferenceable(40) %2) #15
  br label %_ZN9grpc_core13RefCountedPtrI23grpc_server_credentialsED2Ev.exit

_ZN9grpc_core13RefCountedPtrI23grpc_server_credentialsED2Ev.exit: ; preds = %invoke.cont, %if.then.i, %if.then.i.i
  ret void

lpad:                                             ; preds = %entry
  %5 = landingpad { ptr, i32 }
          cleanup
  %6 = load ptr, ptr %agg.tmp, align 8
  %cmp.not.i2 = icmp eq ptr %6, null
  br i1 %cmp.not.i2, label %_ZN9grpc_core13RefCountedPtrI23grpc_server_credentialsED2Ev.exit9, label %if.then.i3

if.then.i3:                                       ; preds = %lpad
  %refs_.i.i4 = getelementptr inbounds i8, ptr %6, i64 8
  %7 = atomicrmw sub ptr %refs_.i.i4, i64 1 acq_rel, align 8
  %cmp.i.i.i5 = icmp eq i64 %7, 1
  br i1 %cmp.i.i.i5, label %if.then.i.i6, label %_ZN9grpc_core13RefCountedPtrI23grpc_server_credentialsED2Ev.exit9

if.then.i.i6:                                     ; preds = %if.then.i3
  %vtable.i.i.i7 = load ptr, ptr %6, align 8
  %vfn.i.i.i8 = getelementptr inbounds i8, ptr %vtable.i.i.i7, i64 8
  %8 = load ptr, ptr %vfn.i.i.i8, align 8
  call void %8(ptr noundef nonnull align 8 dereferenceable(40) %6) #15
  br label %_ZN9grpc_core13RefCountedPtrI23grpc_server_credentialsED2Ev.exit9

_ZN9grpc_core13RefCountedPtrI23grpc_server_credentialsED2Ev.exit9: ; preds = %lpad, %if.then.i3, %if.then.i.i6
  resume { ptr, i32 } %5
}